; Function Attrs: mustprogress uwtable
define dso_local void @_ZN24cmBinUtilsLinuxELFLinkerC2EP26cmRuntimeDependencyArchive(ptr noundef nonnull align 8 dereferenceable(66) %0, ptr noundef %1) unnamed_addr #3 align 2 personality ptr @__gxx_personality_v0 {
  tail call void @_ZN16cmBinUtilsLinkerC2EP26cmRuntimeDependencyArchive(ptr noundef nonnull align 8 dereferenceable(16) %0, ptr noundef %1)
  store ptr getelementptr inbounds ({ [6 x ptr] }, ptr @_ZTV24cmBinUtilsLinuxELFLinker, i64 0, i32 0, i64 2), ptr %0, align 8
  %3 = getelementptr inbounds i8, ptr %0, i64 16
  %4 = getelementptr inbounds i8, ptr %0, i64 40
  tail call void @llvm.memset.p0.i64(ptr noundef nonnull align 8 dereferenceable(17) %3, i8 0, i64 17, i1 false)
  tail call void @llvm.memset.p0.i64(ptr noundef nonnull align 8 dereferenceable(26) %4, i8 0, i64 26, i1 false)
  ret void
}